; Function Attrs: nounwind uwtable
define dso_local noundef ptr @makeDefElemExtended(ptr noundef %0, ptr noundef %1, ptr noundef %2, i32 noundef %3, i32 noundef %4) local_unnamed_addr #0 {
  %6 = tail call noundef ptr @palloc0(i64 noundef 40) #7
  store i32 93, ptr %6, align 4
  %7 = getelementptr inbounds nuw i8, ptr %6, i64 8
  store ptr %0, ptr %7, align 8
  %8 = getelementptr inbounds nuw i8, ptr %6, i64 16
  store ptr %1, ptr %8, align 8
  %9 = getelementptr inbounds nuw i8, ptr %6, i64 24
  store ptr %2, ptr %9, align 8
  %10 = getelementptr inbounds nuw i8, ptr %6, i64 32
  store i32 %3, ptr %10, align 8
  %11 = getelementptr inbounds nuw i8, ptr %6, i64 36
  store i32 %4, ptr %11, align 4
  ret ptr %6
}